target datalayout = "e-m:e-p270:32:32-p271:32:32-p272:64:64-i64:64-i128:128-f80:128-n8:16:32:64-S128"
target triple = "x86_64-pc-linux-gnu"

%struct.srun_opt_t = type { i16, ptr, ptr, ptr, i8, ptr, i16, i8, ptr, i32, i8, i8, i8, ptr, i8, i8, i8, i32, i32, i32, i8, i32, i32, i32, ptr, i8, i32, i8, i8, ptr, ptr, i32, i8, i8, ptr, ptr, ptr, i8, i32, i8, i32, ptr, ptr, i8, i8, i16, i8, i8 }
%struct.slurm_step_id_msg = type { i64, i32, i32, i32 }
%struct.srun_job = type { %struct.slurm_step_id_msg, i32, i32, ptr, i32, i32, i32, i32, ptr, ptr, ptr, ptr, i32, i32, i32, i16, i16, i16, i16, i32, %union.pthread_mutex_t, %union.pthread_cond_t, i32, ptr, ptr, ptr, ptr, ptr, ptr, i32, i16, i16, i16, ptr, ptr, ptr, ptr, i32, ptr, i32, ptr }
%union.pthread_mutex_t = type { %struct.__pthread_mutex_s }
%struct.__pthread_mutex_s = type { i32, i32, i32, i32, i32, i16, i16, %struct.__pthread_internal_list }
%struct.__pthread_internal_list = type { ptr, ptr }
%union.pthread_cond_t = type { %struct.__pthread_cond_s }
%struct.__pthread_cond_s = type { %union.__atomic_wide_counter, %union.__atomic_wide_counter, [2 x i32], [2 x i32], i32, i32, [2 x i32] }
%union.__atomic_wide_counter = type { i64 }

@sropt = external global %struct.srun_opt_t, align 8
@shepherd_fd = internal global i32 -1, align 4
@signal_thread = internal global i64 0, align 8
@srun_shutdown = external global i8, align 1
@.str.39 = private unnamed_addr constant [23 x i8] c"%s: pthread_join(): %m\00", align 1
@__func__.fini_srun = private unnamed_addr constant [10 x i8] c"fini_srun\00", align 1
@.str.51 = private unnamed_addr constant [1 x i8] zeroinitializer, align 1
@.str.69 = private unnamed_addr constant [5 x i8] c"none\00", align 1
@.str.70 = private unnamed_addr constant [21 x i8] c"SLURM_SCRIPT_CONTEXT\00", align 1
@.str.71 = private unnamed_addr constant [12 x i8] c"epilog_srun\00", align 1
@.str.72 = private unnamed_addr constant [50 x i8] c"unable to set SLURM_SCRIPT_CONTEXT in environment\00", align 1
@.str.73 = private unnamed_addr constant [29 x i8] c"srun epilog failed status=%d\00", align 1
@.str.112 = private unnamed_addr constant [20 x i8] c"write(shepherd): %m\00", align 1

; Function Attrs: nounwind uwtable
define internal void @_run_srun_epilog(ptr noundef %0) #0 {
  %2 = alloca ptr, align 8
  %3 = alloca i32, align 4
  store ptr %0, ptr %2, align 8
  call void @llvm.lifetime.start.p0(i64 4, ptr %3) #10
  %4 = load ptr, ptr getelementptr inbounds nuw (%struct.srun_opt_t, ptr @sropt, i32 0, i32 13), align 8
  %5 = icmp ne ptr %4, null
  br i1 %5, label %6, label %25

6:                                                ; preds = %1
  %7 = load ptr, ptr getelementptr inbounds nuw (%struct.srun_opt_t, ptr @sropt, i32 0, i32 13), align 8
  %8 = call i32 @xstrcasecmp(ptr noundef %7, ptr noundef @.str.69)
  %9 = icmp ne i32 %8, 0
  br i1 %9, label %10, label %25

10:                                               ; preds = %6
  %11 = call i32 (ptr, ptr, ptr, ...) @setenvf(ptr noundef null, ptr noundef @.str.70, ptr noundef @.str.71)
  %12 = icmp slt i32 %11, 0
  br i1 %12, label %13, label %15

13:                                               ; preds = %10
  %14 = call i32 (ptr, ...) @error(ptr noundef @.str.72)
  br label %15

15:                                               ; preds = %13, %10
  %16 = load ptr, ptr %2, align 8
  %17 = load ptr, ptr getelementptr inbounds nuw (%struct.srun_opt_t, ptr @sropt, i32 0, i32 13), align 8
  %18 = call i32 @_run_srun_script(ptr noundef %16, ptr noundef %17)
  store i32 %18, ptr %3, align 4
  %19 = load i32, ptr %3, align 4
  %20 = icmp ne i32 %19, 0
  br i1 %20, label %21, label %24

21:                                               ; preds = %15
  %22 = load i32, ptr %3, align 4
  %23 = call i32 (ptr, ...) @error(ptr noundef @.str.73, i32 noundef %22)
  br label %24

24:                                               ; preds = %21, %15
  br label %25

25:                                               ; preds = %24, %6, %1
  call void @llvm.lifetime.end.p0(i64 4, ptr %3) #10
  ret void
}

; Function Attrs: nounwind uwtable
define internal void @_shepherd_notify(i32 noundef %0) #0 {
  %2 = alloca i32, align 4
  %3 = alloca i32, align 4
  store i32 %0, ptr %2, align 4
  call void @llvm.lifetime.start.p0(i64 4, ptr %3) #10
  br label %4

4:                                                ; preds = %19, %1
  br label %5

5:                                                ; preds = %4
  %6 = load i32, ptr %2, align 4
  %7 = call i64 @write(i32 noundef %6, ptr noundef @.str.51, i64 noundef 1)
  %8 = trunc i64 %7 to i32
  store i32 %8, ptr %3, align 4
  %9 = load i32, ptr %3, align 4
  %10 = icmp eq i32 %9, -1
  br i1 %10, label %11, label %22

11:                                               ; preds = %5
  %12 = call ptr @__errno_location() #11
  %13 = load i32, ptr %12, align 4
  %14 = icmp eq i32 %13, 11
  br i1 %14, label %19, label %15

15:                                               ; preds = %11
  %16 = call ptr @__errno_location() #11
  %17 = load i32, ptr %16, align 4
  %18 = icmp eq i32 %17, 4
  br i1 %18, label %19, label %20

19:                                               ; preds = %15, %11
  br label %4, !llvm.loop !45

20:                                               ; preds = %15
  %21 = call i32 (ptr, ...) @error(ptr noundef @.str.112)
  br label %22

22:                                               ; preds = %20, %5
  br label %23

23:                                               ; preds = %22
  %24 = load i32, ptr %2, align 4
  %25 = call i32 @close(i32 noundef %24)
  call void @llvm.lifetime.end.p0(i64 4, ptr %3) #10
  ret void
}

; Function Attrs: nounwind uwtable
define dso_local void @fini_srun(ptr noundef %0, i1 noundef zeroext %1, ptr noundef %2) #0 {
  %4 = alloca ptr, align 8
  %5 = alloca i8, align 1
  %6 = alloca ptr, align 8
  %7 = alloca i32, align 4
  store ptr %0, ptr %4, align 8
  %8 = zext i1 %1 to i8
  store i8 %8, ptr %5, align 1
  store ptr %2, ptr %6, align 8
  %9 = load i8, ptr %5, align 1, !range !8, !noundef !9
  %10 = trunc i8 %9 to i1
  br i1 %10, label %11, label %32

11:                                               ; preds = %3
  %12 = call i32 @cleanup_allocation()
  %13 = load ptr, ptr %4, align 8
  %14 = getelementptr inbounds nuw %struct.srun_job, ptr %13, i32 0, i32 19
  %15 = load i32, ptr %14, align 4
  %16 = icmp uge i32 %15, 4
  br i1 %16, label %17, label %23

17:                                               ; preds = %11
  %18 = load ptr, ptr %4, align 8
  %19 = getelementptr inbounds nuw %struct.srun_job, ptr %18, i32 0, i32 0
  %20 = getelementptr inbounds nuw %struct.slurm_step_id_msg, ptr %19, i32 0, i32 1
  %21 = load i32, ptr %20, align 8
  %22 = call i32 @slurm_complete_job(i32 noundef %21, i32 noundef -2)
  br label %31

23:                                               ; preds = %11
  %24 = load ptr, ptr %4, align 8
  %25 = getelementptr inbounds nuw %struct.srun_job, ptr %24, i32 0, i32 0
  %26 = getelementptr inbounds nuw %struct.slurm_step_id_msg, ptr %25, i32 0, i32 1
  %27 = load i32, ptr %26, align 8
  %28 = load ptr, ptr %6, align 8
  %29 = load i32, ptr %28, align 4
  %30 = call i32 @slurm_complete_job(i32 noundef %27, i32 noundef %29)
  br label %31

31:                                               ; preds = %23, %17
  br label %32

32:                                               ; preds = %31, %3
  %33 = load i32, ptr @shepherd_fd, align 4
  call void @_shepherd_notify(i32 noundef %33)
  %34 = load i64, ptr @signal_thread, align 8
  %35 = icmp ne i64 %34, 0
  br i1 %35, label %36, label %54

36:                                               ; preds = %32
  store i8 1, ptr @srun_shutdown, align 1
  %37 = load i64, ptr @signal_thread, align 8
  %38 = call i32 @pthread_kill(i64 noundef %37, i32 noundef 2) #10
  br label %39

39:                                               ; preds = %36
  call void @llvm.lifetime.start.p0(i64 4, ptr %7) #10
  store i32 0, ptr %7, align 4
  %40 = load i64, ptr @signal_thread, align 8
  %41 = icmp ne i64 %40, 0
  br i1 %41, label %42, label %45

42:                                               ; preds = %39
  %43 = load i64, ptr @signal_thread, align 8
  %44 = call i32 @pthread_join(i64 noundef %43, ptr noundef null)
  store i32 %44, ptr %7, align 4
  store i64 0, ptr @signal_thread, align 8
  br label %45

45:                                               ; preds = %42, %39
  %46 = load i32, ptr %7, align 4
  %47 = icmp ne i32 %46, 0
  br i1 %47, label %48, label %52

48:                                               ; preds = %45
  %49 = load i32, ptr %7, align 4
  %50 = call ptr @__errno_location() #11
  store i32 %49, ptr %50, align 4
  %51 = call i32 (ptr, ...) @error(ptr noundef @.str.39, ptr noundef @__func__.fini_srun)
  br label %52

52:                                               ; preds = %48, %45
  call void @llvm.lifetime.end.p0(i64 4, ptr %7) #10
  br label %53

53:                                               ; preds = %52
  br label %54

54:                                               ; preds = %53, %32
  %55 = load ptr, ptr %4, align 8
  call void @_run_srun_epilog(ptr noundef %55)
  %56 = load ptr, ptr %4, align 8
  %57 = getelementptr inbounds nuw %struct.srun_job, ptr %56, i32 0, i32 33
  %58 = load ptr, ptr %57, align 8
  %59 = call i32 @step_ctx_destroy(ptr noundef %58)
  %60 = load ptr, ptr %6, align 8
  %61 = load i32, ptr %60, align 4
  %62 = and i32 %61, 127
  %63 = icmp eq i32 %62, 0
  br i1 %63, label %64, label %70

64:                                               ; preds = %54
  %65 = load ptr, ptr %6, align 8
  %66 = load i32, ptr %65, align 4
  %67 = and i32 %66, 65280
  %68 = lshr i32 %67, 8
  %69 = load ptr, ptr %6, align 8
  store i32 %68, ptr %69, align 4
  br label %86

70:                                               ; preds = %54
  %71 = load ptr, ptr %6, align 8
  %72 = load i32, ptr %71, align 4
  %73 = and i32 %72, 127
  %74 = add i32 %73, 1
  %75 = trunc i32 %74 to i8
  %76 = sext i8 %75 to i32
  %77 = ashr i32 %76, 1
  %78 = icmp sgt i32 %77, 0
  br i1 %78, label %79, label %85

79:                                               ; preds = %70
  %80 = load ptr, ptr %6, align 8
  %81 = load i32, ptr %80, align 4
  %82 = and i32 %81, 127
  %83 = add i32 128, %82
  %84 = load ptr, ptr %6, align 8
  store i32 %83, ptr %84, align 4
  br label %85

85:                                               ; preds = %79, %70
  br label %86

86:                                               ; preds = %85, %64
  call void @mpir_cleanup()
  ret void
}