; Function Attrs: nounwind uwtable
define dso_local void @fini_srun(ptr noundef readonly captures(none) %0, i1 noundef zeroext %1, ptr noundef captures(none) %2) local_unnamed_addr #0 {
  br i1 %1, label %4, label %14

4:                                                ; preds = %3
  %5 = tail call i32 @cleanup_allocation() #15
  %6 = getelementptr inbounds nuw i8, ptr %0, i64 108
  %7 = load i32, ptr %6, align 4
  %8 = icmp ugt i32 %7, 3
  %9 = getelementptr inbounds nuw i8, ptr %0, i64 8
  %10 = load i32, ptr %9, align 8
  br i1 %8, label %.sink.split, label %11

11:                                               ; preds = %4
  %12 = load i32, ptr %2, align 4
  br label %.sink.split

.sink.split:                                      ; preds = %4, %11
  %.sink = phi i32 [ %12, %11 ], [ -2, %4 ]
  %13 = tail call i32 @slurm_complete_job(i32 noundef %10, i32 noundef %.sink) #15
  br label %14

14:                                               ; preds = %.sink.split, %3
  %15 = load i32, ptr @shepherd_fd, align 4
  %16 = tail call i64 @write(i32 noundef %15, ptr noundef nonnull @.str.51, i64 noundef 1) #15
  %17 = and i64 %16, 4294967295
  %18 = icmp eq i64 %17, 4294967295
  br i1 %18, label %.lr.ph.i, label %_shepherd_notify.exit

.lr.ph.i:                                         ; preds = %14
  %19 = tail call ptr @__errno_location() #16
  br label %20

20:                                               ; preds = %22, %.lr.ph.i
  %21 = load i32, ptr %19, align 4
  switch i32 %21, label %26 [
    i32 11, label %22
    i32 4, label %22
  ]

22:                                               ; preds = %20, %20
  %23 = tail call i64 @write(i32 noundef %15, ptr noundef nonnull @.str.51, i64 noundef 1) #15
  %24 = and i64 %23, 4294967295
  %25 = icmp eq i64 %24, 4294967295
  br i1 %25, label %20, label %_shepherd_notify.exit, !llvm.loop !48

26:                                               ; preds = %20
  %27 = tail call i32 (ptr, ...) @error(ptr noundef nonnull @.str.112) #15
  br label %_shepherd_notify.exit

_shepherd_notify.exit:                            ; preds = %22, %14, %26
  %28 = tail call i32 @close(i32 noundef %15) #15
  %29 = load i64, ptr @signal_thread, align 8
  %.not = icmp eq i64 %29, 0
  br i1 %.not, label %.thread, label %30

30:                                               ; preds = %_shepherd_notify.exit
  store i8 1, ptr @srun_shutdown, align 1
  %31 = tail call i32 @pthread_kill(i64 noundef %29, i32 noundef 2) #15
  %32 = load i64, ptr @signal_thread, align 8
  %.not16 = icmp eq i64 %32, 0
  br i1 %.not16, label %.thread, label %33

33:                                               ; preds = %30
  %34 = tail call i32 @pthread_join(i64 noundef %32, ptr noundef null) #15
  store i64 0, ptr @signal_thread, align 8
  %.not17 = icmp eq i32 %34, 0
  br i1 %.not17, label %.thread, label %35

35:                                               ; preds = %33
  %36 = tail call ptr @__errno_location() #16
  store i32 %34, ptr %36, align 4
  %37 = tail call i32 (ptr, ...) @error(ptr noundef nonnull @.str.39, ptr noundef nonnull @__func__.fini_srun) #15
  br label %.thread

.thread:                                          ; preds = %30, %33, %35, %_shepherd_notify.exit
  %38 = load ptr, ptr getelementptr inbounds nuw (i8, ptr @sropt, i64 72), align 8
  %.not.i = icmp eq ptr %38, null
  br i1 %.not.i, label %_run_srun_epilog.exit, label %39

39:                                               ; preds = %.thread
  %40 = tail call i32 @xstrcasecmp(ptr noundef nonnull %38, ptr noundef nonnull @.str.69) #15
  %.not3.i = icmp eq i32 %40, 0
  br i1 %.not3.i, label %_run_srun_epilog.exit, label %41

41:                                               ; preds = %39
  %42 = tail call i32 (ptr, ptr, ptr, ...) @setenvf(ptr noundef null, ptr noundef nonnull @.str.70, ptr noundef nonnull @.str.71) #15
  %43 = icmp slt i32 %42, 0
  br i1 %43, label %44, label %46

44:                                               ; preds = %41
  %45 = tail call i32 (ptr, ...) @error(ptr noundef nonnull @.str.72) #15
  br label %46

46:                                               ; preds = %44, %41
  %47 = load ptr, ptr getelementptr inbounds nuw (i8, ptr @sropt, i64 72), align 8
  %48 = tail call fastcc i32 @_run_srun_script(ptr noundef %47)
  %.not4.i = icmp eq i32 %48, 0
  br i1 %.not4.i, label %_run_srun_epilog.exit, label %49

49:                                               ; preds = %46
  %50 = tail call i32 (ptr, ...) @error(ptr noundef nonnull @.str.73, i32 noundef %48) #15
  br label %_run_srun_epilog.exit

_run_srun_epilog.exit:                            ; preds = %.thread, %39, %46, %49
  %51 = getelementptr inbounds nuw i8, ptr %0, i64 272
  %52 = load ptr, ptr %51, align 8
  %53 = tail call i32 @step_ctx_destroy(ptr noundef %52) #15
  %54 = load i32, ptr %2, align 4
  %55 = and i32 %54, 127
  %56 = icmp eq i32 %55, 0
  br i1 %56, label %57, label %60

57:                                               ; preds = %_run_srun_epilog.exit
  %58 = lshr i32 %54, 8
  %59 = and i32 %58, 255
  br label %.sink.split20

60:                                               ; preds = %_run_srun_epilog.exit
  %61 = shl nuw nsw i32 %55, 24
  %sext = add nuw i32 %61, 16777216
  %62 = icmp sgt i32 %sext, 33554431
  br i1 %62, label %63, label %65

63:                                               ; preds = %60
  %64 = or disjoint i32 %55, 128
  br label %.sink.split20

.sink.split20:                                    ; preds = %57, %63
  %.sink21 = phi i32 [ %64, %63 ], [ %59, %57 ]
  store i32 %.sink21, ptr %2, align 4
  br label %65

65:                                               ; preds = %.sink.split20, %60
  tail call void @mpir_cleanup() #15
  ret void
}